; Function Attrs: mustprogress nofree nounwind willreturn memory(read, inaccessiblemem: none) uwtable
define internal fastcc noundef zeroext i1 @_equalListenStmt(ptr readonly captures(address) %.8.val, ptr noundef nonnull readonly captures(none) %0) unnamed_addr #3 {
  %.not = icmp eq ptr %.8.val, null
  %.phi.trans.insert = getelementptr inbounds nuw i8, ptr %0, i64 8
  %.pre = load ptr, ptr %.phi.trans.insert, align 8
  br i1 %.not, label %6, label %2

2:                                                ; preds = %1
  %.not9 = icmp eq ptr %.pre, null
  br i1 %.not9, label %.thread, label %3

3:                                                ; preds = %2
  %4 = tail call i32 @strcmp(ptr noundef nonnull dereferenceable(1) %.8.val, ptr noundef nonnull dereferenceable(1) %.pre) #11
  %5 = icmp eq i32 %4, 0
  br i1 %5, label %8, label %.thread

6:                                                ; preds = %1
  %7 = icmp eq ptr %.8.val, %.pre
  br i1 %7, label %8, label %.thread

8:                                                ; preds = %3, %6
  br label %.thread

.thread:                                          ; preds = %2, %3, %6, %8
  %.0 = phi i1 [ true, %8 ], [ false, %6 ], [ false, %3 ], [ false, %2 ]
  ret i1 %.0
}